target datalayout = "e-m:e-p270:32:32-p271:32:32-p272:64:64-i64:64-i128:128-f80:128-n8:16:32:64-S128"
target triple = "x86_64-pc-linux-gnu"

; Function Attrs: mustprogress nounwind uwtable
define weak_odr hidden noundef ptr @_ZN4UTF84nextItEEPcPKcPT_(ptr noundef %0, ptr noundef %1) #1 comdat align 2 {
  %3 = alloca ptr, align 8
  %4 = alloca ptr, align 8
  %5 = alloca ptr, align 8
  %6 = alloca ptr, align 8
  %7 = alloca i8, align 1
  %8 = alloca i8, align 1
  %9 = alloca i8, align 1
  %10 = alloca i32, align 4
  %11 = alloca i16, align 2
  %12 = alloca i8, align 1
  %13 = alloca i8, align 1
  %14 = alloca i8, align 1
  %15 = alloca i8, align 1
  %16 = alloca i8, align 1
  store ptr %0, ptr %4, align 8
  store ptr %1, ptr %5, align 8
  %17 = load ptr, ptr %4, align 8
  store ptr %17, ptr %6, align 8
  store i32 -1, ptr %10, align 4
  %18 = load ptr, ptr %6, align 8
  %19 = getelementptr inbounds i8, ptr %18, i64 0
  %20 = load i8, ptr %19, align 1
  store i8 %20, ptr %7, align 1
  %21 = zext i8 %20 to i32
  %22 = ashr i32 %21, 4
  switch i32 %22, label %23 [
    i32 8, label %26
    i32 9, label %26
    i32 10, label %26
    i32 11, label %26
    i32 15, label %26
    i32 12, label %27
    i32 13, label %27
    i32 14, label %51
  ]

23:                                               ; preds = %2
  %24 = load i8, ptr %7, align 1
  %25 = zext i8 %24 to i16
  store i16 %25, ptr %11, align 2
  store i32 1, ptr %10, align 4
  br label %91

26:                                               ; preds = %2, %2, %2, %2, %2
  br label %91

27:                                               ; preds = %2, %2
  %28 = load ptr, ptr %6, align 8
  %29 = getelementptr inbounds i8, ptr %28, i64 1
  %30 = load i8, ptr %29, align 1
  store i8 %30, ptr %8, align 1
  %31 = zext i8 %30 to i32
  %32 = and i32 %31, 192
  %33 = icmp eq i32 %32, 128
  br i1 %33, label %34, label %50

34:                                               ; preds = %27
  %35 = load i8, ptr %7, align 1
  %36 = zext i8 %35 to i32
  %37 = and i32 %36, 31
  %38 = trunc i32 %37 to i8
  store i8 %38, ptr %12, align 1
  %39 = load i8, ptr %8, align 1
  %40 = zext i8 %39 to i32
  %41 = and i32 %40, 63
  %42 = trunc i32 %41 to i8
  store i8 %42, ptr %13, align 1
  %43 = load i8, ptr %12, align 1
  %44 = zext i8 %43 to i32
  %45 = shl i32 %44, 6
  %46 = load i8, ptr %13, align 1
  %47 = zext i8 %46 to i32
  %48 = add nsw i32 %45, %47
  %49 = trunc i32 %48 to i16
  store i16 %49, ptr %11, align 2
  store i32 2, ptr %10, align 4
  br label %91

50:                                               ; preds = %27
  br label %91

51:                                               ; preds = %2
  %52 = load ptr, ptr %6, align 8
  %53 = getelementptr inbounds i8, ptr %52, i64 1
  %54 = load i8, ptr %53, align 1
  store i8 %54, ptr %8, align 1
  %55 = zext i8 %54 to i32
  %56 = and i32 %55, 192
  %57 = icmp eq i32 %56, 128
  br i1 %57, label %58, label %90

58:                                               ; preds = %51
  %59 = load ptr, ptr %6, align 8
  %60 = getelementptr inbounds i8, ptr %59, i64 2
  %61 = load i8, ptr %60, align 1
  store i8 %61, ptr %9, align 1
  %62 = zext i8 %61 to i32
  %63 = and i32 %62, 192
  %64 = icmp eq i32 %63, 128
  br i1 %64, label %65, label %89

65:                                               ; preds = %58
  %66 = load i8, ptr %7, align 1
  %67 = zext i8 %66 to i32
  %68 = and i32 %67, 15
  %69 = trunc i32 %68 to i8
  store i8 %69, ptr %14, align 1
  %70 = load i8, ptr %8, align 1
  %71 = zext i8 %70 to i32
  %72 = and i32 %71, 63
  %73 = trunc i32 %72 to i8
  store i8 %73, ptr %15, align 1
  %74 = load i8, ptr %9, align 1
  %75 = zext i8 %74 to i32
  %76 = and i32 %75, 63
  %77 = trunc i32 %76 to i8
  store i8 %77, ptr %16, align 1
  %78 = load i8, ptr %14, align 1
  %79 = zext i8 %78 to i32
  %80 = shl i32 %79, 6
  %81 = load i8, ptr %15, align 1
  %82 = zext i8 %81 to i32
  %83 = add nsw i32 %80, %82
  %84 = shl i32 %83, 6
  %85 = load i8, ptr %16, align 1
  %86 = zext i8 %85 to i32
  %87 = add nsw i32 %84, %86
  %88 = trunc i32 %87 to i16
  store i16 %88, ptr %11, align 2
  store i32 3, ptr %10, align 4
  br label %89

89:                                               ; preds = %65, %58
  br label %90

90:                                               ; preds = %89, %51
  br label %91

91:                                               ; preds = %90, %50, %34, %26, %23
  %92 = load i32, ptr %10, align 4
  %93 = icmp sle i32 %92, 0
  br i1 %93, label %94, label %102

94:                                               ; preds = %91
  %95 = load ptr, ptr %6, align 8
  %96 = getelementptr inbounds i8, ptr %95, i64 0
  %97 = load i8, ptr %96, align 1
  %98 = zext i8 %97 to i16
  %99 = load ptr, ptr %5, align 8
  store i16 %98, ptr %99, align 2
  %100 = load ptr, ptr %6, align 8
  %101 = getelementptr inbounds i8, ptr %100, i64 1
  store ptr %101, ptr %3, align 8
  br label %109

102:                                              ; preds = %91
  %103 = load i16, ptr %11, align 2
  %104 = load ptr, ptr %5, align 8
  store i16 %103, ptr %104, align 2
  %105 = load ptr, ptr %6, align 8
  %106 = load i32, ptr %10, align 4
  %107 = sext i32 %106 to i64
  %108 = getelementptr inbounds i8, ptr %105, i64 %107
  store ptr %108, ptr %3, align 8
  br label %109

109:                                              ; preds = %102, %94
  %110 = load ptr, ptr %3, align 8
  ret ptr %110
}

; Function Attrs: mustprogress nounwind uwtable
define hidden noundef i32 @_ZN4UTF827get_supplementary_characterEPKh(ptr noundef %0) #1 align 2 {
  %2 = alloca ptr, align 8
  store ptr %0, ptr %2, align 8
  %3 = load ptr, ptr %2, align 8
  %4 = getelementptr inbounds i8, ptr %3, i64 1
  %5 = load i8, ptr %4, align 1
  %6 = zext i8 %5 to i32
  %7 = and i32 %6, 15
  %8 = shl i32 %7, 16
  %9 = add nsw i32 65536, %8
  %10 = load ptr, ptr %2, align 8
  %11 = getelementptr inbounds i8, ptr %10, i64 2
  %12 = load i8, ptr %11, align 1
  %13 = zext i8 %12 to i32
  %14 = and i32 %13, 63
  %15 = shl i32 %14, 10
  %16 = add nsw i32 %9, %15
  %17 = load ptr, ptr %2, align 8
  %18 = getelementptr inbounds i8, ptr %17, i64 4
  %19 = load i8, ptr %18, align 1
  %20 = zext i8 %19 to i32
  %21 = and i32 %20, 15
  %22 = shl i32 %21, 6
  %23 = add nsw i32 %16, %22
  %24 = load ptr, ptr %2, align 8
  %25 = getelementptr inbounds i8, ptr %24, i64 5
  %26 = load i8, ptr %25, align 1
  %27 = zext i8 %26 to i32
  %28 = and i32 %27, 63
  %29 = add nsw i32 %23, %28
  ret i32 %29
}

; Function Attrs: mustprogress nounwind uwtable
define hidden noundef zeroext i1 @_ZN4UTF826is_supplementary_characterEPKh(ptr noundef %0) #1 align 2 {
  %2 = alloca ptr, align 8
  store ptr %0, ptr %2, align 8
  %3 = load ptr, ptr %2, align 8
  %4 = getelementptr inbounds i8, ptr %3, i64 0
  %5 = load i8, ptr %4, align 1
  %6 = zext i8 %5 to i32
  %7 = and i32 %6, 255
  %8 = icmp eq i32 %7, 237
  br i1 %8, label %9, label %44

9:                                                ; preds = %1
  %10 = load ptr, ptr %2, align 8
  %11 = getelementptr inbounds i8, ptr %10, i64 1
  %12 = load i8, ptr %11, align 1
  %13 = zext i8 %12 to i32
  %14 = and i32 %13, 240
  %15 = icmp eq i32 %14, 160
  br i1 %15, label %16, label %44

16:                                               ; preds = %9
  %17 = load ptr, ptr %2, align 8
  %18 = getelementptr inbounds i8, ptr %17, i64 2
  %19 = load i8, ptr %18, align 1
  %20 = zext i8 %19 to i32
  %21 = and i32 %20, 192
  %22 = icmp eq i32 %21, 128
  br i1 %22, label %23, label %44

23:                                               ; preds = %16
  %24 = load ptr, ptr %2, align 8
  %25 = getelementptr inbounds i8, ptr %24, i64 3
  %26 = load i8, ptr %25, align 1
  %27 = zext i8 %26 to i32
  %28 = and i32 %27, 255
  %29 = icmp eq i32 %28, 237
  br i1 %29, label %30, label %44

30:                                               ; preds = %23
  %31 = load ptr, ptr %2, align 8
  %32 = getelementptr inbounds i8, ptr %31, i64 4
  %33 = load i8, ptr %32, align 1
  %34 = zext i8 %33 to i32
  %35 = and i32 %34, 240
  %36 = icmp eq i32 %35, 176
  br i1 %36, label %37, label %44

37:                                               ; preds = %30
  %38 = load ptr, ptr %2, align 8
  %39 = getelementptr inbounds i8, ptr %38, i64 5
  %40 = load i8, ptr %39, align 1
  %41 = zext i8 %40 to i32
  %42 = and i32 %41, 192
  %43 = icmp eq i32 %42, 128
  br label %44

44:                                               ; preds = %37, %30, %23, %16, %9, %1
  %45 = phi i1 [ false, %30 ], [ false, %23 ], [ false, %16 ], [ false, %9 ], [ false, %1 ], [ %43, %37 ]
  ret i1 %45
}

; Function Attrs: mustprogress nounwind uwtable
define hidden noundef ptr @_ZN4UTF814next_characterEPKcPi(ptr noundef %0, ptr noundef %1) #1 align 2 {
  %3 = alloca ptr, align 8
  %4 = alloca ptr, align 8
  %5 = alloca ptr, align 8
  %6 = alloca ptr, align 8
  %7 = alloca i16, align 2
  %8 = alloca ptr, align 8
  store ptr %0, ptr %4, align 8
  store ptr %1, ptr %5, align 8
  %9 = load ptr, ptr %4, align 8
  store ptr %9, ptr %6, align 8
  %10 = load ptr, ptr %6, align 8
  %11 = call noundef zeroext i1 @_ZN4UTF826is_supplementary_characterEPKh(ptr noundef %10)
  br i1 %11, label %12, label %18

12:                                               ; preds = %2
  %13 = load ptr, ptr %6, align 8
  %14 = call noundef i32 @_ZN4UTF827get_supplementary_characterEPKh(ptr noundef %13)
  %15 = load ptr, ptr %5, align 8
  store i32 %14, ptr %15, align 4
  %16 = load ptr, ptr %6, align 8
  %17 = getelementptr inbounds i8, ptr %16, i64 6
  store ptr %17, ptr %3, align 8
  br label %25

18:                                               ; preds = %2
  %19 = load ptr, ptr %4, align 8
  %20 = call noundef ptr @_ZN4UTF84nextItEEPcPKcPT_(ptr noundef %19, ptr noundef %7)
  store ptr %20, ptr %8, align 8
  %21 = load i16, ptr %7, align 2
  %22 = zext i16 %21 to i32
  %23 = load ptr, ptr %5, align 8
  store i32 %22, ptr %23, align 4
  %24 = load ptr, ptr %8, align 8
  store ptr %24, ptr %3, align 8
  br label %25

25:                                               ; preds = %18, %12
  %26 = load ptr, ptr %3, align 8
  ret ptr %26
}