; Function Attrs: mustprogress nofree norecurse nosync nounwind willreturn memory(argmem: readwrite) uwtable
define hidden noundef nonnull ptr @_ZN4UTF814next_characterEPKcPi(ptr noundef readonly %0, ptr nocapture noundef writeonly %1) local_unnamed_addr #0 align 2 {
  %3 = load i8, ptr %0, align 1
  %4 = icmp eq i8 %3, -19
  br i1 %4, label %5, label %45

5:                                                ; preds = %2
  %6 = getelementptr inbounds i8, ptr %0, i64 1
  %7 = load i8, ptr %6, align 1
  %8 = and i8 %7, -16
  %9 = icmp eq i8 %8, -96
  br i1 %9, label %10, label %.thread

10:                                               ; preds = %5
  %11 = getelementptr inbounds i8, ptr %0, i64 2
  %12 = load i8, ptr %11, align 1
  %13 = and i8 %12, -64
  %14 = icmp eq i8 %13, -128
  br i1 %14, label %15, label %.thread

15:                                               ; preds = %10
  %16 = getelementptr inbounds i8, ptr %0, i64 3
  %17 = load i8, ptr %16, align 1
  %18 = icmp eq i8 %17, -19
  br i1 %18, label %19, label %.thread

19:                                               ; preds = %15
  %20 = getelementptr inbounds i8, ptr %0, i64 4
  %21 = load i8, ptr %20, align 1
  %22 = and i8 %21, -16
  %23 = icmp eq i8 %22, -80
  br i1 %23, label %_ZN4UTF826is_supplementary_characterEPKh.exit, label %.thread

_ZN4UTF826is_supplementary_characterEPKh.exit:    ; preds = %19
  %24 = getelementptr inbounds i8, ptr %0, i64 5
  %25 = load i8, ptr %24, align 1
  %26 = and i8 %25, -64
  %27 = icmp eq i8 %26, -128
  br i1 %27, label %28, label %.thread

28:                                               ; preds = %_ZN4UTF826is_supplementary_characterEPKh.exit
  %29 = and i8 %7, 15
  %30 = zext nneg i8 %29 to i32
  %31 = shl nuw nsw i32 %30, 16
  %32 = add nuw nsw i32 %31, 65536
  %33 = and i8 %12, 63
  %34 = zext nneg i8 %33 to i32
  %35 = shl nuw nsw i32 %34, 10
  %36 = or disjoint i32 %32, %35
  %37 = and i8 %21, 15
  %38 = zext nneg i8 %37 to i32
  %39 = shl nuw nsw i32 %38, 6
  %40 = or disjoint i32 %36, %39
  %41 = and i8 %25, 63
  %42 = zext nneg i8 %41 to i32
  %43 = or disjoint i32 %40, %42
  store i32 %43, ptr %1, align 4
  %44 = getelementptr inbounds i8, ptr %0, i64 6
  br label %83

45:                                               ; preds = %2
  %46 = lshr i8 %3, 4
  switch i8 %46, label %47 [
    i8 8, label %79
    i8 9, label %79
    i8 10, label %79
    i8 11, label %79
    i8 15, label %79
    i8 12, label %49
    i8 13, label %49
    i8 14, label %..thread_crit_edge
  ]

..thread_crit_edge:                               ; preds = %45
  %.phi.trans.insert = getelementptr inbounds i8, ptr %0, i64 1
  %.pre = load i8, ptr %.phi.trans.insert, align 1
  br label %.thread

47:                                               ; preds = %45
  %48 = zext i8 %3 to i32
  br label %_ZN4UTF84nextItEEPcPKcPT_.exit

49:                                               ; preds = %45, %45
  %50 = getelementptr inbounds i8, ptr %0, i64 1
  %51 = load i8, ptr %50, align 1
  %52 = and i8 %51, -64
  %53 = icmp eq i8 %52, -128
  br i1 %53, label %54, label %79

54:                                               ; preds = %49
  %55 = and i8 %3, 31
  %56 = and i8 %51, 63
  %57 = zext nneg i8 %55 to i32
  %58 = shl nuw nsw i32 %57, 6
  %59 = zext nneg i8 %56 to i32
  %60 = or disjoint i32 %58, %59
  br label %_ZN4UTF84nextItEEPcPKcPT_.exit

.thread:                                          ; preds = %..thread_crit_edge, %5, %10, %15, %19, %_ZN4UTF826is_supplementary_characterEPKh.exit
  %61 = phi i8 [ %.pre, %..thread_crit_edge ], [ %7, %5 ], [ %7, %10 ], [ %7, %15 ], [ %7, %19 ], [ %7, %_ZN4UTF826is_supplementary_characterEPKh.exit ]
  %62 = and i8 %61, -64
  %63 = icmp eq i8 %62, -128
  br i1 %63, label %64, label %79

64:                                               ; preds = %.thread
  %65 = getelementptr inbounds i8, ptr %0, i64 2
  %66 = load i8, ptr %65, align 1
  %67 = and i8 %66, -64
  %68 = icmp eq i8 %67, -128
  br i1 %68, label %69, label %79

69:                                               ; preds = %64
  %70 = and i8 %61, 63
  %71 = and i8 %66, 63
  %72 = zext i8 %3 to i32
  %73 = zext nneg i8 %70 to i32
  %74 = shl nuw nsw i32 %72, 12
  %75 = shl nuw nsw i32 %73, 6
  %76 = or disjoint i32 %75, %74
  %77 = zext nneg i8 %71 to i32
  %78 = or disjoint i32 %76, %77
  br label %_ZN4UTF84nextItEEPcPKcPT_.exit

79:                                               ; preds = %64, %.thread, %49, %45, %45, %45, %45, %45
  %80 = zext i8 %3 to i32
  br label %_ZN4UTF84nextItEEPcPKcPT_.exit

_ZN4UTF84nextItEEPcPKcPT_.exit:                   ; preds = %47, %54, %69, %79
  %.025.sink.i = phi i32 [ %80, %79 ], [ %48, %47 ], [ %78, %69 ], [ %60, %54 ]
  %.024.sink.i = phi i64 [ 1, %79 ], [ 1, %47 ], [ 3, %69 ], [ 2, %54 ]
  %81 = getelementptr inbounds i8, ptr %0, i64 %.024.sink.i
  %82 = and i32 %.025.sink.i, 65535
  store i32 %82, ptr %1, align 4
  br label %83

83:                                               ; preds = %_ZN4UTF84nextItEEPcPKcPT_.exit, %28
  %.0 = phi ptr [ %44, %28 ], [ %81, %_ZN4UTF84nextItEEPcPKcPT_.exit ]
  ret ptr %.0
}